; Function Attrs: mustprogress nofree norecurse nosync nounwind willreturn memory(argmem: write) uwtable
define void @_ZN5arrow2io12StderrStreamC1Ev(ptr nocapture noundef nonnull writeonly align 8 dereferenceable(16) %this) unnamed_addr #4 align 2 personality ptr @__gxx_personality_v0 {
entry:
  %0 = getelementptr inbounds i8, ptr %this, i64 16
  %1 = getelementptr inbounds i8, ptr %this, i64 24
  tail call void @llvm.memset.p0.i64(ptr noundef nonnull align 8 dereferenceable(16) %1, i8 0, i64 16, i1 false)
  %mode_.i = getelementptr inbounds i8, ptr %this, i64 40
  store ptr getelementptr inbounds ({ [11 x ptr], [15 x ptr] }, ptr @_ZTVN5arrow2io12StderrStreamE, i64 0, i32 0, i64 3), ptr %this, align 8
  store ptr getelementptr inbounds ({ [11 x ptr], [15 x ptr] }, ptr @_ZTVN5arrow2io12StderrStreamE, i64 0, i32 1, i64 8), ptr %0, align 8
  %pos_ = getelementptr inbounds i8, ptr %this, i64 8
  store i64 0, ptr %pos_, align 8
  store i32 1, ptr %mode_.i, align 8
  ret void
}